; ModuleID = 'source-C-CXX/36/1481.c'
source_filename = "source-C-CXX/36/1481.c"
target datalayout = "e-m:e-p270:32:32-p271:32:32-p272:64:64-i64:64-f80:128-n8:16:32:64-S128"
target triple = "x86_64-pc-linux-gnu"

@.str = private unnamed_addr constant [3 x i8] c"%d\00", align 1
@.str.1 = private unnamed_addr constant [3 x i8] c"%s\00", align 1
@.str.2 = private unnamed_addr constant [4 x i8] c"%c\0A\00", align 1
@str = private unnamed_addr constant [3 x i8] c"no\00", align 1

; Function Attrs: nofree nounwind sspstrong uwtable
define dso_local i32 @main() local_unnamed_addr #0 {
  %1 = alloca i32, align 4
  %2 = alloca [100000 x i8], align 16
  %3 = bitcast i32* %1 to i8*
  call void @llvm.lifetime.start.p0i8(i64 4, i8* nonnull %3) #5
  %4 = getelementptr inbounds [100000 x i8], [100000 x i8]* %2, i64 0, i64 0
  call void @llvm.lifetime.start.p0i8(i64 100000, i8* nonnull %4) #5
  %5 = call i32 (i8*, ...) @__isoc99_scanf(i8* getelementptr inbounds ([3 x i8], [3 x i8]* @.str, i64 0, i64 0), i32* nonnull %1)
  %6 = load i32, i32* %1, align 4, !tbaa !5
  %7 = icmp sgt i32 %6, 0
  br i1 %7, label %8, label %65

8:                                                ; preds = %0, %61
  %9 = phi i32 [ %62, %61 ], [ 0, %0 ]
  %10 = call i32 (i8*, ...) @__isoc99_scanf(i8* getelementptr inbounds ([3 x i8], [3 x i8]* @.str.1, i64 0, i64 0), i8* nonnull %4)
  %11 = call i64 @strlen(i8* noundef nonnull %4) #6
  %12 = trunc i64 %11 to i32
  %13 = load i8, i8* %4, align 16
  %14 = icmp sgt i32 %12, 1
  %15 = icmp sgt i32 %12, 0
  br i1 %15, label %16, label %59

16:                                               ; preds = %8
  %17 = and i64 %11, 4294967295
  br label %18

18:                                               ; preds = %16, %46
  %19 = phi i64 [ 0, %16 ], [ %47, %46 ]
  %20 = icmp eq i64 %19, 0
  br i1 %20, label %49, label %50

21:                                               ; preds = %50, %28
  %22 = phi i64 [ 0, %50 ], [ %29, %28 ]
  %23 = getelementptr inbounds [100000 x i8], [100000 x i8]* %2, i64 0, i64 %22
  %24 = load i8, i8* %23, align 1, !tbaa !9
  %25 = icmp ne i8 %52, %24
  %26 = icmp eq i64 %19, %22
  %27 = select i1 %25, i1 true, i1 %26
  br i1 %27, label %28, label %41

28:                                               ; preds = %21
  %29 = add nuw nsw i64 %22, 1
  %30 = icmp eq i64 %29, %17
  br i1 %30, label %53, label %21, !llvm.loop !10

31:                                               ; preds = %49, %36
  %32 = phi i64 [ %37, %36 ], [ 1, %49 ]
  %33 = getelementptr inbounds [100000 x i8], [100000 x i8]* %2, i64 0, i64 %32
  %34 = load i8, i8* %33, align 1, !tbaa !9
  %35 = icmp eq i8 %34, %13
  br i1 %35, label %39, label %36

36:                                               ; preds = %31
  %37 = add nuw nsw i64 %32, 1
  %38 = icmp eq i64 %37, %17
  br i1 %38, label %53, label %31, !llvm.loop !12

39:                                               ; preds = %31
  %40 = trunc i64 %32 to i32
  br label %43

41:                                               ; preds = %21
  %42 = trunc i64 %22 to i32
  br label %43

43:                                               ; preds = %41, %39, %49
  %44 = phi i32 [ 1, %49 ], [ %40, %39 ], [ %42, %41 ]
  %45 = icmp eq i32 %44, %12
  br i1 %45, label %53, label %46

46:                                               ; preds = %43
  %47 = add nuw nsw i64 %19, 1
  %48 = icmp eq i64 %47, %17
  br i1 %48, label %59, label %18, !llvm.loop !13

49:                                               ; preds = %18
  br i1 %14, label %31, label %43

50:                                               ; preds = %18
  %51 = getelementptr inbounds [100000 x i8], [100000 x i8]* %2, i64 0, i64 %19
  %52 = load i8, i8* %51, align 1, !tbaa !9
  br label %21

53:                                               ; preds = %43, %28, %36
  %54 = and i64 %19, 4294967295
  %55 = getelementptr inbounds [100000 x i8], [100000 x i8]* %2, i64 0, i64 %54
  %56 = load i8, i8* %55, align 1, !tbaa !9
  %57 = sext i8 %56 to i32
  %58 = call i32 (i8*, ...) @printf(i8* nonnull dereferenceable(1) getelementptr inbounds ([4 x i8], [4 x i8]* @.str.2, i64 0, i64 0), i32 %57)
  br label %61

59:                                               ; preds = %46, %8
  %60 = call i32 @puts(i8* nonnull dereferenceable(1) getelementptr inbounds ([3 x i8], [3 x i8]* @str, i64 0, i64 0))
  br label %61

61:                                               ; preds = %53, %59
  %62 = add nuw nsw i32 %9, 1
  %63 = load i32, i32* %1, align 4, !tbaa !5
  %64 = icmp slt i32 %62, %63
  br i1 %64, label %8, label %65, !llvm.loop !14

65:                                               ; preds = %61, %0
  call void @llvm.lifetime.end.p0i8(i64 100000, i8* nonnull %4) #5
  call void @llvm.lifetime.end.p0i8(i64 4, i8* nonnull %3) #5
  ret i32 0
}

; Function Attrs: argmemonly mustprogress nofree nosync nounwind willreturn
declare void @llvm.lifetime.start.p0i8(i64 immarg, i8* nocapture) #1

; Function Attrs: nofree nounwind
declare noundef i32 @__isoc99_scanf(i8* nocapture noundef readonly, ...) local_unnamed_addr #2

; Function Attrs: argmemonly mustprogress nofree nounwind readonly willreturn
declare i64 @strlen(i8* nocapture) local_unnamed_addr #3

; Function Attrs: nofree nounwind
declare noundef i32 @printf(i8* nocapture noundef readonly, ...) local_unnamed_addr #2

; Function Attrs: argmemonly mustprogress nofree nosync nounwind willreturn
declare void @llvm.lifetime.end.p0i8(i64 immarg, i8* nocapture) #1

; Function Attrs: nofree nounwind
declare noundef i32 @puts(i8* nocapture noundef readonly) local_unnamed_addr #4


!llvm.module.flags = !{!0, !1, !2, !3}
!llvm.ident = !{!4}

!0 = !{i32 1, !"wchar_size", i32 4}
!1 = !{i32 7, !"PIC Level", i32 2}
!2 = !{i32 7, !"PIE Level", i32 2}
!3 = !{i32 7, !"uwtable", i32 1}
!4 = !{!"clang version 13.0.0"}
!5 = !{!6, !6, i64 0}
!6 = !{!"int", !7, i64 0}
!7 = !{!"omnipotent char", !8, i64 0}
!8 = !{!"Simple C/C++ TBAA"}
!9 = !{!7, !7, i64 0}
!10 = distinct !{!10, !11}
!11 = !{!"llvm.loop.mustprogress"}
!12 = distinct !{!12, !11}
!13 = distinct !{!13, !11}
!14 = distinct !{!14, !11}
